; Function Attrs: nounwind uwtable
define internal fastcc void @mov_write_avcc_tag(ptr noundef %0, ptr noundef readonly captures(none) %1) unnamed_addr #0 {
  %3 = tail call i64 @avio_seek(ptr noundef %0, i64 noundef 0, i32 noundef 1) #16
  tail call void @avio_wb32(ptr noundef %0, i32 noundef 0) #16
  tail call void @avio_wl32(ptr noundef %0, i32 noundef 1130591841) #16
  %4 = getelementptr inbounds nuw i8, ptr %1, i64 128
  %5 = load ptr, ptr %4, align 8, !tbaa !97
  %6 = getelementptr inbounds nuw i8, ptr %1, i64 120
  %7 = load i32, ptr %6, align 8, !tbaa !94
  %8 = tail call i32 @ff_isom_write_avcc(ptr noundef %0, ptr noundef %5, i32 noundef %7) #16
  %9 = tail call i64 @avio_seek(ptr noundef %0, i64 noundef 0, i32 noundef 1) #16
  %10 = tail call i64 @avio_seek(ptr noundef %0, i64 noundef %3, i32 noundef 0) #16
  %11 = sub nsw i64 %9, %3
  %12 = trunc i64 %11 to i32
  tail call void @avio_wb32(ptr noundef %0, i32 noundef %12) #16
  %13 = tail call i64 @avio_seek(ptr noundef %0, i64 noundef %9, i32 noundef 0) #16
  ret void
}